target datalayout = "e-m:e-p270:32:32-p271:32:32-p272:64:64-i64:64-i128:128-f80:128-n8:16:32:64-S128"
target triple = "x86_64-pc-linux-gnu"

%struct.Aig_Obj_t_ = type { %union.anon, ptr, ptr, i64, i32, i32, %union.anon.0 }
%union.anon = type { ptr }
%union.anon.0 = type { ptr }
%struct.Fra_Sml_t_ = type { ptr, i32, i32, i32, i32, i32, i32, i32, i32, [0 x i32] }
%struct.Aig_Man_t_ = type { ptr, ptr, ptr, ptr, ptr, ptr, ptr, %struct.Aig_Obj_t_, i32, i32, i32, i32, i32, i32, [7 x i32], i32, ptr, i32, ptr, i32, ptr, i32, i32, i32, ptr, i32, i32, i32, i32, i32, ptr, ptr, i32, ptr, ptr, i32, ptr, ptr, i32, i32, i32, ptr, ptr, ptr, ptr, ptr, ptr, ptr, ptr, ptr, ptr, ptr, ptr, ptr, ptr, i32, ptr, ptr, ptr, ptr, i32, i64, i64, i64, ptr, ptr }
%struct.Vec_Ptr_t_ = type { i32, i32, ptr }
%struct.Vec_Str_t_ = type { i32, i32, ptr }

; Function Attrs: inlinehint nounwind uwtable
define internal void @Abc_InfoSetBit(ptr noundef %0, i32 noundef %1) #2 {
  %3 = alloca ptr, align 8
  %4 = alloca i32, align 4
  store ptr %0, ptr %3, align 8, !tbaa !29
  store i32 %1, ptr %4, align 4, !tbaa !8
  %5 = load i32, ptr %4, align 4, !tbaa !8
  %6 = and i32 %5, 31
  %7 = shl i32 1, %6
  %8 = load ptr, ptr %3, align 8, !tbaa !29
  %9 = load i32, ptr %4, align 4, !tbaa !8
  %10 = ashr i32 %9, 5
  %11 = sext i32 %10 to i64
  %12 = getelementptr inbounds i32, ptr %8, i64 %11
  %13 = load i32, ptr %12, align 4, !tbaa !8
  %14 = or i32 %13, %7
  store i32 %14, ptr %12, align 4, !tbaa !8
  ret void
}

; Function Attrs: inlinehint nounwind uwtable
define internal signext i8 @Vec_StrEntry(ptr noundef %0, i32 noundef %1) #2 {
  %3 = alloca ptr, align 8
  %4 = alloca i32, align 4
  store ptr %0, ptr %3, align 8, !tbaa !145
  store i32 %1, ptr %4, align 4, !tbaa !8
  %5 = load ptr, ptr %3, align 8, !tbaa !145
  %6 = getelementptr inbounds nuw %struct.Vec_Str_t_, ptr %5, i32 0, i32 2
  %7 = load ptr, ptr %6, align 8, !tbaa !151
  %8 = load i32, ptr %4, align 4, !tbaa !8
  %9 = sext i32 %8 to i64
  %10 = getelementptr inbounds i8, ptr %7, i64 %9
  %11 = load i8, ptr %10, align 1, !tbaa !10
  ret i8 %11
}

; Function Attrs: inlinehint nounwind uwtable
define internal ptr @Fra_ObjSim(ptr noundef %0, i32 noundef %1) #2 {
  %3 = alloca ptr, align 8
  %4 = alloca i32, align 4
  store ptr %0, ptr %3, align 8, !tbaa !35
  store i32 %1, ptr %4, align 4, !tbaa !8
  %5 = load ptr, ptr %3, align 8, !tbaa !35
  %6 = getelementptr inbounds nuw %struct.Fra_Sml_t_, ptr %5, i32 0, i32 9
  %7 = getelementptr inbounds [0 x i32], ptr %6, i64 0, i64 0
  %8 = load ptr, ptr %3, align 8, !tbaa !35
  %9 = getelementptr inbounds nuw %struct.Fra_Sml_t_, ptr %8, i32 0, i32 4
  %10 = load i32, ptr %9, align 4, !tbaa !32
  %11 = load i32, ptr %4, align 4, !tbaa !8
  %12 = mul nsw i32 %10, %11
  %13 = sext i32 %12 to i64
  %14 = getelementptr inbounds i32, ptr %7, i64 %13
  ret ptr %14
}

; Function Attrs: inlinehint nounwind uwtable
define internal ptr @Vec_PtrEntry(ptr noundef %0, i32 noundef %1) #2 {
  %3 = alloca ptr, align 8
  %4 = alloca i32, align 4
  store ptr %0, ptr %3, align 8, !tbaa !54
  store i32 %1, ptr %4, align 4, !tbaa !8
  %5 = load ptr, ptr %3, align 8, !tbaa !54
  %6 = getelementptr inbounds nuw %struct.Vec_Ptr_t_, ptr %5, i32 0, i32 2
  %7 = load ptr, ptr %6, align 8, !tbaa !57
  %8 = load i32, ptr %4, align 4, !tbaa !8
  %9 = sext i32 %8 to i64
  %10 = getelementptr inbounds ptr, ptr %7, i64 %9
  %11 = load ptr, ptr %10, align 8, !tbaa !58
  ret ptr %11
}

; Function Attrs: inlinehint nounwind uwtable
define internal i32 @Vec_PtrSize(ptr noundef %0) #2 {
  %2 = alloca ptr, align 8
  store ptr %0, ptr %2, align 8, !tbaa !54
  %3 = load ptr, ptr %2, align 8, !tbaa !54
  %4 = getelementptr inbounds nuw %struct.Vec_Ptr_t_, ptr %3, i32 0, i32 1
  %5 = load i32, ptr %4, align 4, !tbaa !55
  ret i32 %5
}

; Function Attrs: inlinehint nounwind uwtable
define internal i32 @Aig_ManCiNum(ptr noundef %0) #2 {
  %2 = alloca ptr, align 8
  store ptr %0, ptr %2, align 8, !tbaa !52
  %3 = load ptr, ptr %2, align 8, !tbaa !52
  %4 = getelementptr inbounds nuw %struct.Aig_Man_t_, ptr %3, i32 0, i32 14
  %5 = getelementptr inbounds [7 x i32], ptr %4, i64 0, i64 2
  %6 = load i32, ptr %5, align 8, !tbaa !8
  ret i32 %6
}

; Function Attrs: inlinehint nounwind uwtable
define internal i32 @Vec_StrSize(ptr noundef %0) #2 {
  %2 = alloca ptr, align 8
  store ptr %0, ptr %2, align 8, !tbaa !145
  %3 = load ptr, ptr %2, align 8, !tbaa !145
  %4 = getelementptr inbounds nuw %struct.Vec_Str_t_, ptr %3, i32 0, i32 1
  %5 = load i32, ptr %4, align 4, !tbaa !148
  ret i32 %5
}

; Function Attrs: nounwind uwtable
define void @Fra_SmlInitializeGiven(ptr noundef %0, ptr noundef %1) #0 {
  %3 = alloca ptr, align 8
  %4 = alloca ptr, align 8
  %5 = alloca ptr, align 8
  %6 = alloca ptr, align 8
  %7 = alloca i32, align 4
  %8 = alloca i32, align 4
  %9 = alloca i32, align 4
  %10 = alloca i32, align 4
  store ptr %0, ptr %3, align 8, !tbaa !35
  store ptr %1, ptr %4, align 8, !tbaa !145
  call void @llvm.lifetime.start.p0(i64 8, ptr %5) #8
  call void @llvm.lifetime.start.p0(i64 8, ptr %6) #8
  call void @llvm.lifetime.start.p0(i64 4, ptr %7) #8
  call void @llvm.lifetime.start.p0(i64 4, ptr %8) #8
  call void @llvm.lifetime.start.p0(i64 4, ptr %9) #8
  %11 = load ptr, ptr %4, align 8, !tbaa !145
  %12 = call i32 @Vec_StrSize(ptr noundef %11)
  %13 = load ptr, ptr %3, align 8, !tbaa !35
  %14 = getelementptr inbounds nuw %struct.Fra_Sml_t_, ptr %13, i32 0, i32 0
  %15 = load ptr, ptr %14, align 8, !tbaa !94
  %16 = call i32 @Aig_ManCiNum(ptr noundef %15)
  %17 = sdiv i32 %12, %16
  store i32 %17, ptr %9, align 4, !tbaa !8
  call void @llvm.lifetime.start.p0(i64 4, ptr %10) #8
  %18 = load ptr, ptr %3, align 8, !tbaa !35
  %19 = getelementptr inbounds nuw %struct.Fra_Sml_t_, ptr %18, i32 0, i32 4
  %20 = load i32, ptr %19, align 4, !tbaa !32
  %21 = mul nsw i32 %20, 32
  store i32 %21, ptr %10, align 4, !tbaa !8
  store i32 0, ptr %7, align 4, !tbaa !8
  br label %22

22:                                               ; preds = %111, %2
  %23 = load i32, ptr %7, align 4, !tbaa !8
  %24 = load ptr, ptr %3, align 8, !tbaa !35
  %25 = getelementptr inbounds nuw %struct.Fra_Sml_t_, ptr %24, i32 0, i32 0
  %26 = load ptr, ptr %25, align 8, !tbaa !94
  %27 = getelementptr inbounds nuw %struct.Aig_Man_t_, ptr %26, i32 0, i32 2
  %28 = load ptr, ptr %27, align 8, !tbaa !44
  %29 = call i32 @Vec_PtrSize(ptr noundef %28)
  %30 = icmp slt i32 %23, %29
  br i1 %30, label %31, label %39

31:                                               ; preds = %22
  %32 = load ptr, ptr %3, align 8, !tbaa !35
  %33 = getelementptr inbounds nuw %struct.Fra_Sml_t_, ptr %32, i32 0, i32 0
  %34 = load ptr, ptr %33, align 8, !tbaa !94
  %35 = getelementptr inbounds nuw %struct.Aig_Man_t_, ptr %34, i32 0, i32 2
  %36 = load ptr, ptr %35, align 8, !tbaa !44
  %37 = load i32, ptr %7, align 4, !tbaa !8
  %38 = call ptr @Vec_PtrEntry(ptr noundef %36, i32 noundef %37)
  store ptr %38, ptr %5, align 8, !tbaa !3
  br label %39

39:                                               ; preds = %31, %22
  %40 = phi i1 [ false, %22 ], [ true, %31 ]
  br i1 %40, label %41, label %114

41:                                               ; preds = %39
  %42 = load ptr, ptr %3, align 8, !tbaa !35
  %43 = load ptr, ptr %5, align 8, !tbaa !3
  %44 = getelementptr inbounds nuw %struct.Aig_Obj_t_, ptr %43, i32 0, i32 5
  %45 = load i32, ptr %44, align 4, !tbaa !27
  %46 = call ptr @Fra_ObjSim(ptr noundef %42, i32 noundef %45)
  store ptr %46, ptr %6, align 8, !tbaa !29
  store i32 0, ptr %8, align 4, !tbaa !8
  br label %47

47:                                               ; preds = %58, %41
  %48 = load i32, ptr %8, align 4, !tbaa !8
  %49 = load ptr, ptr %3, align 8, !tbaa !35
  %50 = getelementptr inbounds nuw %struct.Fra_Sml_t_, ptr %49, i32 0, i32 4
  %51 = load i32, ptr %50, align 4, !tbaa !32
  %52 = icmp slt i32 %48, %51
  br i1 %52, label %53, label %61

53:                                               ; preds = %47
  %54 = load ptr, ptr %6, align 8, !tbaa !29
  %55 = load i32, ptr %8, align 4, !tbaa !8
  %56 = sext i32 %55 to i64
  %57 = getelementptr inbounds i32, ptr %54, i64 %56
  store i32 0, ptr %57, align 4, !tbaa !8
  br label %58

58:                                               ; preds = %53
  %59 = load i32, ptr %8, align 4, !tbaa !8
  %60 = add nsw i32 %59, 1
  store i32 %60, ptr %8, align 4, !tbaa !8
  br label %47, !llvm.loop !154

61:                                               ; preds = %47
  store i32 0, ptr %8, align 4, !tbaa !8
  br label %62

62:                                               ; preds = %82, %61
  %63 = load i32, ptr %8, align 4, !tbaa !8
  %64 = load i32, ptr %9, align 4, !tbaa !8
  %65 = icmp slt i32 %63, %64
  br i1 %65, label %66, label %85

66:                                               ; preds = %62
  %67 = load ptr, ptr %4, align 8, !tbaa !145
  %68 = load i32, ptr %8, align 4, !tbaa !8
  %69 = load ptr, ptr %3, align 8, !tbaa !35
  %70 = getelementptr inbounds nuw %struct.Fra_Sml_t_, ptr %69, i32 0, i32 0
  %71 = load ptr, ptr %70, align 8, !tbaa !94
  %72 = call i32 @Aig_ManCiNum(ptr noundef %71)
  %73 = mul nsw i32 %68, %72
  %74 = load i32, ptr %7, align 4, !tbaa !8
  %75 = add nsw i32 %73, %74
  %76 = call signext i8 @Vec_StrEntry(ptr noundef %67, i32 noundef %75)
  %77 = icmp ne i8 %76, 0
  br i1 %77, label %78, label %81

78:                                               ; preds = %66
  %79 = load ptr, ptr %6, align 8, !tbaa !29
  %80 = load i32, ptr %8, align 4, !tbaa !8
  call void @Abc_InfoSetBit(ptr noundef %79, i32 noundef %80)
  br label %81

81:                                               ; preds = %78, %66
  br label %82

82:                                               ; preds = %81
  %83 = load i32, ptr %8, align 4, !tbaa !8
  %84 = add nsw i32 %83, 1
  store i32 %84, ptr %8, align 4, !tbaa !8
  br label %62, !llvm.loop !155

85:                                               ; preds = %62
  br label %86

86:                                               ; preds = %107, %85
  %87 = load i32, ptr %8, align 4, !tbaa !8
  %88 = load i32, ptr %10, align 4, !tbaa !8
  %89 = icmp slt i32 %87, %88
  br i1 %89, label %90, label %110

90:                                               ; preds = %86
  %91 = load ptr, ptr %4, align 8, !tbaa !145
  %92 = load i32, ptr %9, align 4, !tbaa !8
  %93 = sub nsw i32 %92, 1
  %94 = load ptr, ptr %3, align 8, !tbaa !35
  %95 = getelementptr inbounds nuw %struct.Fra_Sml_t_, ptr %94, i32 0, i32 0
  %96 = load ptr, ptr %95, align 8, !tbaa !94
  %97 = call i32 @Aig_ManCiNum(ptr noundef %96)
  %98 = mul nsw i32 %93, %97
  %99 = load i32, ptr %7, align 4, !tbaa !8
  %100 = add nsw i32 %98, %99
  %101 = call signext i8 @Vec_StrEntry(ptr noundef %91, i32 noundef %100)
  %102 = icmp ne i8 %101, 0
  br i1 %102, label %103, label %106

103:                                              ; preds = %90
  %104 = load ptr, ptr %6, align 8, !tbaa !29
  %105 = load i32, ptr %8, align 4, !tbaa !8
  call void @Abc_InfoSetBit(ptr noundef %104, i32 noundef %105)
  br label %106

106:                                              ; preds = %103, %90
  br label %107

107:                                              ; preds = %106
  %108 = load i32, ptr %8, align 4, !tbaa !8
  %109 = add nsw i32 %108, 1
  store i32 %109, ptr %8, align 4, !tbaa !8
  br label %86, !llvm.loop !156

110:                                              ; preds = %86
  br label %111

111:                                              ; preds = %110
  %112 = load i32, ptr %7, align 4, !tbaa !8
  %113 = add nsw i32 %112, 1
  store i32 %113, ptr %7, align 4, !tbaa !8
  br label %22, !llvm.loop !157

114:                                              ; preds = %39
  call void @llvm.lifetime.end.p0(i64 4, ptr %10) #8
  call void @llvm.lifetime.end.p0(i64 4, ptr %9) #8
  call void @llvm.lifetime.end.p0(i64 4, ptr %8) #8
  call void @llvm.lifetime.end.p0(i64 4, ptr %7) #8
  call void @llvm.lifetime.end.p0(i64 8, ptr %6) #8
  call void @llvm.lifetime.end.p0(i64 8, ptr %5) #8
  ret void
}