; Function Attrs: nofree norecurse nosync nounwind memory(read, argmem: readwrite, inaccessiblemem: none) uwtable
define void @Fra_SmlInitializeGiven(ptr noundef captures(none) %0, ptr noundef readonly captures(none) %1) local_unnamed_addr #10 {
  %3 = getelementptr i8, ptr %1, i64 4
  %.val38 = load i32, ptr %3, align 4, !tbaa !136
  %4 = load ptr, ptr %0, align 8, !tbaa !85
  %5 = getelementptr i8, ptr %4, i64 136
  %.val35 = load i32, ptr %5, align 8, !tbaa !28
  %6 = sdiv i32 %.val38, %.val35
  %7 = getelementptr inbounds nuw i8, ptr %0, i64 20
  %8 = load i32, ptr %7, align 4, !tbaa !25
  %9 = shl i32 %8, 5
  %10 = getelementptr inbounds nuw i8, ptr %4, i64 16
  %11 = load ptr, ptr %10, align 8, !tbaa !45
  %12 = getelementptr i8, ptr %11, i64 4
  %.val3647 = load i32, ptr %12, align 4, !tbaa !46
  %13 = icmp sgt i32 %.val3647, 0
  br i1 %13, label %.lr.ph50, label %.critedge

.lr.ph50:                                         ; preds = %2
  %14 = getelementptr i8, ptr %11, i64 8
  %.val37 = load ptr, ptr %14, align 8, !tbaa !51
  %15 = getelementptr inbounds nuw i8, ptr %0, i64 40
  %16 = icmp sgt i32 %6, 0
  %17 = add nsw i32 %6, -1
  %18 = getelementptr i8, ptr %1, i64 8
  br i1 %16, label %.lr.ph50.split.us, label %.lr.ph50.split

.lr.ph50.split.us:                                ; preds = %.lr.ph50
  %.val39.us = load ptr, ptr %18, align 8, !tbaa !139
  %19 = icmp slt i32 %6, %9
  br label %20

20:                                               ; preds = %._crit_edge.us, %.lr.ph50.split.us
  %indvars.iv84 = phi i64 [ %indvars.iv.next85, %._crit_edge.us ], [ 0, %.lr.ph50.split.us ]
  %21 = getelementptr inbounds nuw ptr, ptr %.val37, i64 %indvars.iv84
  %22 = load ptr, ptr %21, align 8, !tbaa !65
  %23 = getelementptr inbounds nuw i8, ptr %22, i64 36
  %24 = load i32, ptr %23, align 4, !tbaa !22
  %25 = load i32, ptr %7, align 4, !tbaa !25
  %26 = mul nsw i32 %25, %24
  %27 = sext i32 %26 to i64
  %28 = getelementptr inbounds i32, ptr %15, i64 %27
  %29 = icmp sgt i32 %25, 0
  br i1 %29, label %.lr.ph.us, label %.preheader41.us

._crit_edge.us:                                   ; preds = %45, %..preheader_crit_edge.us
  %indvars.iv.next85 = add nuw nsw i64 %indvars.iv84, 1
  %.val36.us = load i32, ptr %12, align 4, !tbaa !46
  %30 = sext i32 %.val36.us to i64
  %31 = icmp slt i64 %indvars.iv.next85, %30
  br i1 %31, label %20, label %.critedge, !llvm.loop !141

.lr.ph46.us:                                      ; preds = %..preheader_crit_edge.us, %45
  %.245.us = phi i32 [ %46, %45 ], [ %6, %..preheader_crit_edge.us ]
  %.val.us = load i32, ptr %5, align 8, !tbaa !28
  %32 = mul nsw i32 %.val.us, %17
  %33 = add nsw i32 %32, %67
  %34 = sext i32 %33 to i64
  %35 = getelementptr inbounds i8, ptr %.val39.us, i64 %34
  %36 = load i8, ptr %35, align 1, !tbaa !3
  %.not.us = icmp eq i8 %36, 0
  br i1 %.not.us, label %45, label %37

37:                                               ; preds = %.lr.ph46.us
  %38 = and i32 %.245.us, 31
  %39 = shl nuw i32 1, %38
  %40 = lshr i32 %.245.us, 5
  %41 = zext nneg i32 %40 to i64
  %42 = getelementptr inbounds nuw i32, ptr %28, i64 %41
  %43 = load i32, ptr %42, align 4, !tbaa !28
  %44 = or i32 %43, %39
  store i32 %44, ptr %42, align 4, !tbaa !28
  br label %45

45:                                               ; preds = %37, %.lr.ph46.us
  %46 = add nuw nsw i32 %.245.us, 1
  %exitcond83.not = icmp eq i32 %46, %9
  br i1 %exitcond83.not, label %._crit_edge.us, label %.lr.ph46.us, !llvm.loop !142

47:                                               ; preds = %.preheader41.us, %61
  %.143.us = phi i32 [ 0, %.preheader41.us ], [ %62, %61 ]
  %.val34.us = load i32, ptr %5, align 8, !tbaa !28
  %48 = mul nsw i32 %.val34.us, %.143.us
  %49 = add nsw i32 %48, %67
  %50 = sext i32 %49 to i64
  %51 = getelementptr inbounds i8, ptr %.val39.us, i64 %50
  %52 = load i8, ptr %51, align 1, !tbaa !3
  %.not33.us = icmp eq i8 %52, 0
  br i1 %.not33.us, label %61, label %53

53:                                               ; preds = %47
  %54 = and i32 %.143.us, 31
  %55 = shl nuw i32 1, %54
  %56 = lshr i32 %.143.us, 5
  %57 = zext nneg i32 %56 to i64
  %58 = getelementptr inbounds nuw i32, ptr %28, i64 %57
  %59 = load i32, ptr %58, align 4, !tbaa !28
  %60 = or i32 %59, %55
  store i32 %60, ptr %58, align 4, !tbaa !28
  br label %61

61:                                               ; preds = %53, %47
  %62 = add nuw nsw i32 %.143.us, 1
  %exitcond82.not = icmp eq i32 %62, %6
  br i1 %exitcond82.not, label %..preheader_crit_edge.us, label %47, !llvm.loop !143

.lr.ph.us:                                        ; preds = %20, %.lr.ph.us
  %indvars.iv79 = phi i64 [ %indvars.iv.next80, %.lr.ph.us ], [ 0, %20 ]
  %63 = getelementptr inbounds nuw i32, ptr %28, i64 %indvars.iv79
  store i32 0, ptr %63, align 4, !tbaa !28
  %indvars.iv.next80 = add nuw nsw i64 %indvars.iv79, 1
  %64 = load i32, ptr %7, align 4, !tbaa !25
  %65 = sext i32 %64 to i64
  %66 = icmp slt i64 %indvars.iv.next80, %65
  br i1 %66, label %.lr.ph.us, label %.preheader41.us, !llvm.loop !144

.preheader41.us:                                  ; preds = %.lr.ph.us, %20
  %67 = trunc nuw nsw i64 %indvars.iv84 to i32
  br label %47

..preheader_crit_edge.us:                         ; preds = %61
  br i1 %19, label %.lr.ph46.us, label %._crit_edge.us

.lr.ph50.split:                                   ; preds = %.lr.ph50
  %68 = icmp sgt i32 %8, 0
  br i1 %68, label %.lr.ph50.split.split.us, label %.critedge

.lr.ph50.split.split.us:                          ; preds = %.lr.ph50.split
  %.val40.us61 = load ptr, ptr %18, align 8, !tbaa !139
  %smax = tail call i32 @llvm.smax.i32(i32 %9, i32 1)
  br label %69

69:                                               ; preds = %._crit_edge.us62, %.lr.ph50.split.split.us
  %indvars.iv76 = phi i64 [ %indvars.iv.next77, %._crit_edge.us62 ], [ 0, %.lr.ph50.split.split.us ]
  %70 = getelementptr inbounds nuw ptr, ptr %.val37, i64 %indvars.iv76
  %71 = load ptr, ptr %70, align 8, !tbaa !65
  %72 = getelementptr inbounds nuw i8, ptr %71, i64 36
  %73 = load i32, ptr %72, align 4, !tbaa !22
  %74 = load i32, ptr %7, align 4, !tbaa !25
  %75 = mul nsw i32 %74, %73
  %76 = sext i32 %75 to i64
  %77 = getelementptr inbounds i32, ptr %15, i64 %76
  %78 = icmp sgt i32 %74, 0
  br i1 %78, label %.lr.ph.us58, label %.preheader41.us57

79:                                               ; preds = %.preheader41.us57, %93
  %.245.us53 = phi i32 [ 0, %.preheader41.us57 ], [ %94, %93 ]
  %.val.us54 = load i32, ptr %5, align 8, !tbaa !28
  %80 = mul nsw i32 %.val.us54, %17
  %81 = add nsw i32 %80, %99
  %82 = sext i32 %81 to i64
  %83 = getelementptr inbounds i8, ptr %.val40.us61, i64 %82
  %84 = load i8, ptr %83, align 1, !tbaa !3
  %.not.us55 = icmp eq i8 %84, 0
  br i1 %.not.us55, label %93, label %85

85:                                               ; preds = %79
  %86 = and i32 %.245.us53, 31
  %87 = shl nuw i32 1, %86
  %88 = lshr i32 %.245.us53, 5
  %89 = zext nneg i32 %88 to i64
  %90 = getelementptr inbounds nuw i32, ptr %77, i64 %89
  %91 = load i32, ptr %90, align 4, !tbaa !28
  %92 = or i32 %91, %87
  store i32 %92, ptr %90, align 4, !tbaa !28
  br label %93

93:                                               ; preds = %85, %79
  %94 = add nuw nsw i32 %.245.us53, 1
  %exitcond.not = icmp eq i32 %94, %smax
  br i1 %exitcond.not, label %._crit_edge.us62, label %79, !llvm.loop !142

.lr.ph.us58:                                      ; preds = %69, %.lr.ph.us58
  %indvars.iv73 = phi i64 [ %indvars.iv.next74, %.lr.ph.us58 ], [ 0, %69 ]
  %95 = getelementptr inbounds nuw i32, ptr %77, i64 %indvars.iv73
  store i32 0, ptr %95, align 4, !tbaa !28
  %indvars.iv.next74 = add nuw nsw i64 %indvars.iv73, 1
  %96 = load i32, ptr %7, align 4, !tbaa !25
  %97 = sext i32 %96 to i64
  %98 = icmp slt i64 %indvars.iv.next74, %97
  br i1 %98, label %.lr.ph.us58, label %.preheader41.us57, !llvm.loop !144

.preheader41.us57:                                ; preds = %.lr.ph.us58, %69
  %99 = trunc nuw nsw i64 %indvars.iv76 to i32
  br label %79

._crit_edge.us62:                                 ; preds = %93
  %indvars.iv.next77 = add nuw nsw i64 %indvars.iv76, 1
  %.val36.us52 = load i32, ptr %12, align 4, !tbaa !46
  %100 = sext i32 %.val36.us52 to i64
  %101 = icmp slt i64 %indvars.iv.next77, %100
  br i1 %101, label %69, label %.critedge, !llvm.loop !141

.critedge:                                        ; preds = %._crit_edge.us62, %._crit_edge.us, %.lr.ph50.split, %2
  ret void
}